; Function Attrs: nounwind uwtable
define internal i32 @activate(ptr noundef readonly captures(none) %0) #0 {
  %2 = alloca ptr, align 8
  %3 = alloca i32, align 4
  %4 = alloca i64, align 8
  %5 = getelementptr inbounds nuw i8, ptr %0, i64 32
  %6 = load ptr, ptr %5, align 8, !tbaa !4
  %7 = load ptr, ptr %6, align 8, !tbaa !20
  %8 = getelementptr inbounds nuw i8, ptr %0, i64 56
  %9 = load ptr, ptr %8, align 8, !tbaa !22
  %10 = load ptr, ptr %9, align 8, !tbaa !20
  %11 = getelementptr inbounds nuw i8, ptr %0, i64 72
  %12 = load ptr, ptr %11, align 8, !tbaa !23
  %13 = tail call i32 @ff_outlink_get_status(ptr noundef %10) #5
  %.not = icmp eq i32 %13, 0
  br i1 %.not, label %.critedge, label %14

14:                                               ; preds = %1
  tail call void @ff_inlink_set_status(ptr noundef %7, i32 noundef %13) #5
  br label %93

.critedge:                                        ; preds = %1
  %15 = tail call i64 @ff_inlink_queued_frames(ptr noundef %7) #5
  %.not62 = icmp eq i64 %15, 0
  br i1 %.not62, label %85, label %16

16:                                               ; preds = %.critedge
  call void @llvm.lifetime.start.p0(i64 8, ptr nonnull %2) #5
  %17 = tail call ptr @ff_inlink_peek_frame(ptr noundef %7, i64 noundef 0) #5
  store ptr %17, ptr %2, align 8, !tbaa !24
  %18 = getelementptr inbounds nuw i8, ptr %17, i64 136
  %19 = load i64, ptr %18, align 8, !tbaa !26
  %20 = getelementptr inbounds nuw i8, ptr %7, i64 96
  %21 = load i64, ptr %20, align 8
  %22 = tail call i64 @av_rescale_q(i64 noundef %19, i64 %21, i64 4294967296000001) #6
  %23 = getelementptr inbounds nuw i8, ptr %12, i64 40
  %24 = load i32, ptr %23, align 8, !tbaa !35
  switch i32 %24, label %thread-pre-split [
    i32 0, label %.thread
    i32 1, label %._crit_edge74
    i32 2, label %36
  ]

._crit_edge74:                                    ; preds = %16
  %.phi.trans.insert = getelementptr inbounds nuw i8, ptr %12, i64 8
  %.pre = load i64, ptr %.phi.trans.insert, align 8, !tbaa !37
  br label %26

.thread:                                          ; preds = %16
  %25 = getelementptr inbounds nuw i8, ptr %12, i64 8
  store i64 %22, ptr %25, align 8, !tbaa !37
  store i32 1, ptr %23, align 8, !tbaa !35
  br label %26

26:                                               ; preds = %._crit_edge74, %.thread
  %27 = phi i64 [ %.pre, %._crit_edge74 ], [ %22, %.thread ]
  %28 = sub nsw i64 %22, %27
  %29 = getelementptr inbounds nuw i8, ptr %12, i64 24
  %30 = load i64, ptr %29, align 8, !tbaa !38
  %31 = icmp slt i64 %28, %30
  br i1 %31, label %32, label %.thread66

32:                                               ; preds = %26
  %33 = call i32 @ff_inlink_consume_frame(ptr noundef nonnull %7, ptr noundef nonnull %2) #5
  %34 = icmp slt i32 %33, 0
  br i1 %34, label %.thread69, label %.thread69.sink.split

.thread66:                                        ; preds = %26
  %35 = getelementptr inbounds nuw i8, ptr %12, i64 8
  store i64 %22, ptr %35, align 8, !tbaa !37
  store i32 2, ptr %23, align 8, !tbaa !35
  br label %36

36:                                               ; preds = %16, %.thread66
  %37 = tail call i64 @ff_inlink_queued_frames(ptr noundef nonnull %7) #5
  %38 = add i64 %37, -1
  %39 = tail call ptr @ff_inlink_peek_frame(ptr noundef nonnull %7, i64 noundef %38) #5
  store ptr %39, ptr %2, align 8, !tbaa !24
  %40 = getelementptr inbounds nuw i8, ptr %39, i64 136
  %41 = load i64, ptr %40, align 8, !tbaa !26
  %42 = load i64, ptr %20, align 8
  %43 = tail call i64 @av_rescale_q(i64 noundef %41, i64 %42, i64 4294967296000001) #6
  %44 = getelementptr inbounds nuw i8, ptr %12, i64 8
  %45 = load i64, ptr %44, align 8, !tbaa !37
  %46 = sub nsw i64 %43, %45
  %47 = getelementptr inbounds nuw i8, ptr %12, i64 32
  %48 = load i64, ptr %47, align 8, !tbaa !39
  %49 = icmp slt i64 %46, %48
  br i1 %49, label %50, label %55

50:                                               ; preds = %36
  %51 = tail call i64 @av_gettime() #5
  %52 = getelementptr inbounds nuw i8, ptr %12, i64 16
  %53 = load i64, ptr %52, align 8, !tbaa !40
  %54 = icmp slt i64 %51, %53
  br i1 %54, label %.thread-pre-split_crit_edge, label %55

.thread-pre-split_crit_edge:                      ; preds = %50
  %.pr.pre = load i32, ptr %23, align 8, !tbaa !35
  br label %thread-pre-split

55:                                               ; preds = %50, %36
  %56 = load i32, ptr %23, align 8, !tbaa !35
  %57 = add nsw i32 %56, 1
  store i32 %57, ptr %23, align 8, !tbaa !35
  br label %thread-pre-split

thread-pre-split:                                 ; preds = %16, %.thread-pre-split_crit_edge, %55
  %.pr68 = phi i32 [ %57, %55 ], [ %.pr.pre, %.thread-pre-split_crit_edge ], [ %24, %16 ]
  %58 = icmp eq i32 %.pr68, 3
  br i1 %58, label %.preheader, label %thread-pre-split67

.preheader:                                       ; preds = %thread-pre-split
  %59 = tail call i64 @av_gettime() #5
  %60 = getelementptr inbounds nuw i8, ptr %12, i64 16
  %61 = load i64, ptr %60, align 8, !tbaa !40
  %62 = sub nsw i64 %59, %61
  %63 = icmp slt i64 %62, 0
  br i1 %63, label %.lr.ph, label %._crit_edge

.lr.ph:                                           ; preds = %.preheader, %.lr.ph
  %64 = phi i64 [ %73, %.lr.ph ], [ %62, %.preheader ]
  %65 = sub nsw i64 0, %64
  %66 = lshr i64 %65, 1
  %67 = trunc i64 %66 to i32
  %68 = tail call i32 @llvm.smax.i32(i32 %67, i32 100)
  %69 = tail call i32 @llvm.umin.i32(i32 %68, i32 1000000)
  %70 = tail call i32 @av_usleep(i32 noundef %69) #5
  %71 = tail call i64 @av_gettime() #5
  %72 = load i64, ptr %60, align 8, !tbaa !40
  %73 = sub nsw i64 %71, %72
  %74 = icmp slt i64 %73, 0
  br i1 %74, label %.lr.ph, label %._crit_edge, !llvm.loop !41

._crit_edge:                                      ; preds = %.lr.ph, %.preheader
  %75 = load i32, ptr %23, align 8, !tbaa !35
  %76 = add nsw i32 %75, 1
  store i32 %76, ptr %23, align 8, !tbaa !35
  br label %thread-pre-split67

thread-pre-split67:                               ; preds = %thread-pre-split, %._crit_edge
  %77 = phi i32 [ %76, %._crit_edge ], [ %.pr68, %thread-pre-split ]
  %78 = icmp eq i32 %77, 4
  br i1 %78, label %79, label %84

79:                                               ; preds = %thread-pre-split67
  %80 = call i32 @ff_inlink_consume_frame(ptr noundef nonnull %7, ptr noundef nonnull %2) #5
  %81 = icmp slt i32 %80, 0
  br i1 %81, label %.thread69, label %.thread69.sink.split

.thread69.sink.split:                             ; preds = %79, %32
  %82 = load ptr, ptr %2, align 8, !tbaa !24
  %83 = call i32 @ff_filter_frame(ptr noundef %10, ptr noundef %82) #5
  br label %.thread69

.thread69:                                        ; preds = %.thread69.sink.split, %32, %79
  %.3.ph = phi i32 [ %80, %79 ], [ %33, %32 ], [ %83, %.thread69.sink.split ]
  call void @llvm.lifetime.end.p0(i64 8, ptr nonnull %2) #5
  br label %93

84:                                               ; preds = %thread-pre-split67
  call void @llvm.lifetime.end.p0(i64 8, ptr nonnull %2) #5
  br label %85

85:                                               ; preds = %84, %.critedge
  call void @llvm.lifetime.start.p0(i64 4, ptr nonnull %3) #5
  call void @llvm.lifetime.start.p0(i64 8, ptr nonnull %4) #5
  %86 = call i32 @ff_inlink_acknowledge_status(ptr noundef %7, ptr noundef nonnull %3, ptr noundef nonnull %4) #5
  %.not64 = icmp eq i32 %86, 0
  br i1 %.not64, label %90, label %87

87:                                               ; preds = %85
  %88 = load i32, ptr %3, align 4, !tbaa !43
  %89 = load i64, ptr %4, align 8, !tbaa !44
  call void @ff_avfilter_link_set_in_status(ptr noundef %10, i32 noundef %88, i64 noundef %89) #5
  call void @llvm.lifetime.end.p0(i64 8, ptr nonnull %4) #5
  call void @llvm.lifetime.end.p0(i64 4, ptr nonnull %3) #5
  br label %93

90:                                               ; preds = %85
  call void @llvm.lifetime.end.p0(i64 8, ptr nonnull %4) #5
  call void @llvm.lifetime.end.p0(i64 4, ptr nonnull %3) #5
  %91 = call i32 @ff_outlink_frame_wanted(ptr noundef %10) #5
  %.not65 = icmp eq i32 %91, 0
  br i1 %.not65, label %93, label %92

92:                                               ; preds = %90
  call void @ff_inlink_request_frame(ptr noundef %7) #5
  br label %93

93:                                               ; preds = %87, %.thread69, %14, %90, %92
  %.1 = phi i32 [ 0, %92 ], [ 0, %87 ], [ 0, %14 ], [ -1497649742, %90 ], [ %.3.ph, %.thread69 ]
  ret i32 %.1
}